; Function Attrs: nofree nosync nounwind memory(readwrite, inaccessiblemem: none) uwtable
define i32 @Dch_ObjCountSupp_rec(ptr noundef readonly captures(none) %0, ptr noundef captures(none) %1) local_unnamed_addr #0 {
  %3 = getelementptr i8, ptr %0, i64 312
  %.val19 = load i32, ptr %3, align 8
  %4 = getelementptr i8, ptr %1, i64 32
  %.val1220 = load i32, ptr %4, align 8
  %.not21 = icmp eq i32 %.val1220, %.val19
  br i1 %.not21, label %._crit_edge, label %.lr.ph

.lr.ph:                                           ; preds = %2, %tailrecurse
  %5 = phi ptr [ %18, %tailrecurse ], [ %4, %2 ]
  %.val24 = phi i32 [ %.val, %tailrecurse ], [ %.val19, %2 ]
  %.tr1823 = phi ptr [ %16, %tailrecurse ], [ %1, %2 ]
  %accumulator.tr22 = phi i32 [ %17, %tailrecurse ], [ 0, %2 ]
  store i32 %.val24, ptr %5, align 8
  %6 = getelementptr i8, ptr %.tr1823, i64 24
  %.val14 = load i64, ptr %6, align 8
  %7 = and i64 %.val14, 7
  %.not17 = icmp eq i64 %7, 2
  br i1 %.not17, label %._crit_edge.loopexit, label %tailrecurse

tailrecurse:                                      ; preds = %.lr.ph
  %8 = getelementptr i8, ptr %.tr1823, i64 8
  %.val15 = load ptr, ptr %8, align 8
  %9 = ptrtoint ptr %.val15 to i64
  %10 = and i64 %9, -2
  %11 = inttoptr i64 %10 to ptr
  %12 = tail call i32 @Dch_ObjCountSupp_rec(ptr noundef nonnull %0, ptr noundef %11)
  %13 = getelementptr i8, ptr %.tr1823, i64 16
  %.val16 = load ptr, ptr %13, align 8
  %14 = ptrtoint ptr %.val16 to i64
  %15 = and i64 %14, -2
  %16 = inttoptr i64 %15 to ptr
  %17 = add nsw i32 %12, %accumulator.tr22
  %.val = load i32, ptr %3, align 8
  %18 = getelementptr i8, ptr %16, i64 32
  %.val12 = load i32, ptr %18, align 8
  %.not = icmp eq i32 %.val12, %.val
  br i1 %.not, label %._crit_edge.loopexit, label %.lr.ph

._crit_edge.loopexit:                             ; preds = %.lr.ph, %tailrecurse
  %accumulator.tr.lcssa.ph = phi i32 [ %17, %tailrecurse ], [ %accumulator.tr22, %.lr.ph ]
  %.0.ph = phi i32 [ 0, %tailrecurse ], [ 1, %.lr.ph ]
  %19 = add nsw i32 %.0.ph, %accumulator.tr.lcssa.ph
  br label %._crit_edge

._crit_edge:                                      ; preds = %._crit_edge.loopexit, %2
  %accumulator.ret.tr = phi i32 [ 0, %2 ], [ %19, %._crit_edge.loopexit ]
  ret i32 %accumulator.ret.tr
}